; Function Attrs: nounwind sspstrong uwtable
define internal i64 @ossl_ec_group_get_generator(i64 noundef %0) #0 {
  %2 = tail call ptr @rb_check_typeddata(i64 noundef %0, ptr noundef nonnull @ossl_ec_group_type) #7
  %3 = icmp eq ptr %2, null
  br i1 %3, label %4, label %6

4:                                                ; preds = %1
  %5 = load i64, ptr @eEC_GROUP, align 8, !tbaa !6
  tail call void (i64, ptr, ...) @ossl_raise(i64 noundef %5, ptr noundef nonnull @.str.59) #9
  unreachable

6:                                                ; preds = %1
  %7 = tail call ptr @EC_GROUP_get0_generator(ptr noundef nonnull %2) #7
  %.not = icmp eq ptr %7, null
  br i1 %.not, label %10, label %8

8:                                                ; preds = %6
  %9 = tail call fastcc i64 @ec_point_new(ptr noundef %7, ptr noundef nonnull %2)
  br label %10

10:                                               ; preds = %6, %8
  %.0 = phi i64 [ %9, %8 ], [ 4, %6 ]
  ret i64 %.0
}